target datalayout = "e-m:e-p270:32:32-p271:32:32-p272:64:64-i64:64-i128:128-f80:128-n8:16:32:64-S128"
target triple = "x86_64-pc-linux-gnu"

@_ZN10Management17_optional_supportE = hidden global { i8, i8, [2 x i8] } { i8 0, i8 0, [2 x i8] undef }, align 4
@_ZN7VM_Exit10_vm_exitedE = external global i8, align 1

; Function Attrs: mustprogress nounwind uwtable
define hidden void @_ZN10Management20get_optional_supportEP18jmmOptionalSupport(ptr noundef %0) #1 align 2 {
  %2 = alloca ptr, align 8
  store ptr %0, ptr %2, align 8
  %3 = load ptr, ptr %2, align 8
  call void @llvm.memcpy.p0.p0.i64(ptr align 4 %3, ptr align 4 @_ZN10Management17_optional_supportE, i64 4, i1 false)
  ret void
}

; Function Attrs: mustprogress nounwind uwtable
define linkonce_odr hidden void @_ZN2os22verify_stack_alignmentEv() #1 comdat align 2 {
  ret void
}

; Function Attrs: mustprogress nounwind uwtable
define linkonce_odr hidden void @_ZN7VM_Exit18block_if_vm_exitedEv() #1 comdat align 2 {
  %1 = load volatile i8, ptr @_ZN7VM_Exit10_vm_exitedE, align 1
  %2 = trunc i8 %1 to i1
  br i1 %2, label %3, label %4

3:                                                ; preds = %0
  call void @_ZN7VM_Exit17wait_if_vm_exitedEv()
  br label %4

4:                                                ; preds = %3, %0
  ret void
}

; Function Attrs: mustprogress nounwind uwtable
define hidden i32 @jmm_GetOptionalSupport(ptr noundef %0, ptr noundef %1) #1 {
  %3 = alloca i32, align 4
  %4 = alloca ptr, align 8
  %5 = alloca ptr, align 8
  store ptr %0, ptr %4, align 8
  store ptr %1, ptr %5, align 8
  call void @_ZN7VM_Exit18block_if_vm_exitedEv()
  call void @_ZN2os22verify_stack_alignmentEv()
  %6 = load ptr, ptr %5, align 8
  %7 = icmp eq ptr %6, null
  br i1 %7, label %8, label %9

8:                                                ; preds = %2
  store i32 -1, ptr %3, align 4
  br label %11

9:                                                ; preds = %2
  %10 = load ptr, ptr %5, align 8
  call void @_ZN10Management20get_optional_supportEP18jmmOptionalSupport(ptr noundef %10)
  store i32 0, ptr %3, align 4
  br label %11

11:                                               ; preds = %9, %8
  %12 = load i32, ptr %3, align 4
  ret i32 %12
}