; Function Attrs: mustprogress nounwind uwtable
define hidden range(i32 -1, 1) i32 @jmm_GetOptionalSupport(ptr nocapture readnone %0, ptr noundef writeonly %1) #0 {
  %3 = load volatile i8, ptr @_ZN7VM_Exit10_vm_exitedE, align 1
  %4 = trunc i8 %3 to i1
  br i1 %4, label %5, label %_ZN7VM_Exit18block_if_vm_exitedEv.exit

5:                                                ; preds = %2
  tail call void @_ZN7VM_Exit17wait_if_vm_exitedEv() #17
  br label %_ZN7VM_Exit18block_if_vm_exitedEv.exit

_ZN7VM_Exit18block_if_vm_exitedEv.exit:           ; preds = %2, %5
  %6 = icmp eq ptr %1, null
  br i1 %6, label %9, label %7

7:                                                ; preds = %_ZN7VM_Exit18block_if_vm_exitedEv.exit
  %8 = load i32, ptr @_ZN10Management17_optional_supportE, align 4
  store i32 %8, ptr %1, align 4
  br label %9

9:                                                ; preds = %_ZN7VM_Exit18block_if_vm_exitedEv.exit, %7
  %.0 = phi i32 [ 0, %7 ], [ -1, %_ZN7VM_Exit18block_if_vm_exitedEv.exit ]
  ret i32 %.0
}